; Function Attrs: nofree norecurse nosync nounwind memory(argmem: readwrite) uwtable
define internal fastcc range(i32 -1, 1) i32 @format_decimal(i64 noundef %0, ptr noundef nonnull captures(none) %1, i32 noundef range(i32 6, 16) %2) unnamed_addr #10 {
  %4 = icmp slt i64 %0, 0
  %5 = zext nneg i32 %2 to i64
  br i1 %4, label %.preheader.preheader, label %6

.preheader.preheader:                             ; preds = %3
  tail call void @llvm.memset.p0.i64(ptr noundef nonnull align 1 dereferenceable(1) %1, i8 48, i64 %5, i1 false), !tbaa !27
  br label %.loopexit

6:                                                ; preds = %3
  %7 = getelementptr i8, ptr %1, i64 %5
  br label %8

8:                                                ; preds = %8, %6
  %.029 = phi i64 [ %0, %6 ], [ %13, %8 ]
  %.128 = phi ptr [ %7, %6 ], [ %12, %8 ]
  %.025 = phi i32 [ %2, %6 ], [ %14, %8 ]
  %9 = urem i64 %.029, 10
  %10 = trunc nuw nsw i64 %9 to i8
  %11 = or disjoint i8 %10, 48
  %12 = getelementptr inbounds i8, ptr %.128, i64 -1
  store i8 %11, ptr %12, align 1, !tbaa !27
  %13 = udiv i64 %.029, 10
  %14 = add nsw i32 %.025, -1
  %15 = icmp samesign ugt i32 %.025, 1
  %16 = icmp samesign ugt i64 %.029, 9
  %17 = select i1 %15, i1 %16, i1 false
  br i1 %17, label %8, label %18, !llvm.loop !33

18:                                               ; preds = %8
  %19 = icmp samesign ult i64 %.029, 10
  br i1 %19, label %20, label %.preheader32.preheader

.preheader32.preheader:                           ; preds = %18
  tail call void @llvm.memset.p0.i64(ptr noundef nonnull align 1 dereferenceable(1) %12, i8 57, i64 %5, i1 false), !tbaa !27
  br label %.loopexit

20:                                               ; preds = %18
  %21 = sub nsw i32 %2, %14
  %22 = sext i32 %21 to i64
  tail call void @llvm.memmove.p0.p0.i64(ptr nonnull align 1 %1, ptr nonnull align 1 %12, i64 %22, i1 false)
  %23 = icmp sgt i32 %.025, 1
  br i1 %23, label %.lr.ph.preheader, label %.loopexit

.lr.ph.preheader:                                 ; preds = %20
  %24 = zext nneg i32 %14 to i64
  %25 = sub nsw i64 0, %24
  %26 = getelementptr i8, ptr %7, i64 %25
  tail call void @llvm.memset.p0.i64(ptr align 1 %26, i8 32, i64 %24, i1 false), !tbaa !27
  br label %.loopexit

.loopexit:                                        ; preds = %.preheader32.preheader, %.lr.ph.preheader, %.preheader.preheader, %20
  %.0 = phi i32 [ 0, %20 ], [ -1, %.preheader.preheader ], [ 0, %.lr.ph.preheader ], [ -1, %.preheader32.preheader ]
  ret i32 %.0
}